target datalayout = "e-m:e-p270:32:32-p271:32:32-p272:64:64-i64:64-i128:128-f80:128-n8:16:32:64-S128"
target triple = "x86_64-pc-linux-gnu"

%struct.UTrie2 = type { ptr, ptr, ptr, i32, i32, i16, i16, i32, i32, i32, i32, ptr, i32, i8, i8, i16, ptr }

@_ZL9propsTrie = internal constant %struct.UTrie2 { ptr @_ZL15propsTrie_index, ptr getelementptr (i8, ptr @_ZL15propsTrie_index, i64 9496), ptr null, i32 4748, i32 19048, i16 2624, i16 4876, i32 0, i32 0, i32 1114112, i32 23792, ptr null, i32 0, i8 0, i8 0, i16 0, ptr null }, align 8

; Function Attrs: mustprogress nounwind uwtable
define signext i8 @u_isxdigit_77(i32 noundef %0) #0 {
  %2 = alloca i8, align 1
  %3 = alloca i32, align 4
  %4 = alloca i32, align 4
  %5 = alloca i32, align 4
  store i32 %0, ptr %3, align 4, !tbaa !3
  call void @llvm.lifetime.start.p0(i64 4, ptr %4) #6
  %6 = load i32, ptr %3, align 4, !tbaa !3
  %7 = icmp sle i32 %6, 102
  br i1 %7, label %8, label %17

8:                                                ; preds = %1
  %9 = load i32, ptr %3, align 4, !tbaa !3
  %10 = icmp sge i32 %9, 65
  br i1 %10, label %11, label %17

11:                                               ; preds = %8
  %12 = load i32, ptr %3, align 4, !tbaa !3
  %13 = icmp sle i32 %12, 70
  br i1 %13, label %29, label %14

14:                                               ; preds = %11
  %15 = load i32, ptr %3, align 4, !tbaa !3
  %16 = icmp sge i32 %15, 97
  br i1 %16, label %29, label %17

17:                                               ; preds = %14, %8, %1
  %18 = load i32, ptr %3, align 4, !tbaa !3
  %19 = icmp sge i32 %18, 65313
  br i1 %19, label %20, label %30

20:                                               ; preds = %17
  %21 = load i32, ptr %3, align 4, !tbaa !3
  %22 = icmp sle i32 %21, 65350
  br i1 %22, label %23, label %30

23:                                               ; preds = %20
  %24 = load i32, ptr %3, align 4, !tbaa !3
  %25 = icmp sle i32 %24, 65318
  br i1 %25, label %29, label %26

26:                                               ; preds = %23
  %27 = load i32, ptr %3, align 4, !tbaa !3
  %28 = icmp sge i32 %27, 65345
  br i1 %28, label %29, label %30

29:                                               ; preds = %26, %23, %14, %11
  store i8 1, ptr %2, align 1
  store i32 1, ptr %5, align 4
  br label %112

30:                                               ; preds = %26, %20, %17
  %31 = load ptr, ptr @_ZL9propsTrie, align 8, !tbaa !7
  %32 = load i32, ptr %3, align 4, !tbaa !3
  %33 = icmp ult i32 %32, 55296
  br i1 %33, label %34, label %47

34:                                               ; preds = %30
  %35 = load ptr, ptr @_ZL9propsTrie, align 8, !tbaa !7
  %36 = load i32, ptr %3, align 4, !tbaa !3
  %37 = ashr i32 %36, 5
  %38 = add nsw i32 0, %37
  %39 = sext i32 %38 to i64
  %40 = getelementptr inbounds i16, ptr %35, i64 %39
  %41 = load i16, ptr %40, align 2, !tbaa !14
  %42 = zext i16 %41 to i32
  %43 = shl i32 %42, 2
  %44 = load i32, ptr %3, align 4, !tbaa !3
  %45 = and i32 %44, 31
  %46 = add nsw i32 %43, %45
  br label %102

47:                                               ; preds = %30
  %48 = load i32, ptr %3, align 4, !tbaa !3
  %49 = icmp ule i32 %48, 65535
  br i1 %49, label %50, label %66

50:                                               ; preds = %47
  %51 = load ptr, ptr @_ZL9propsTrie, align 8, !tbaa !7
  %52 = load i32, ptr %3, align 4, !tbaa !3
  %53 = icmp sle i32 %52, 56319
  %54 = select i1 %53, i32 320, i32 0
  %55 = load i32, ptr %3, align 4, !tbaa !3
  %56 = ashr i32 %55, 5
  %57 = add nsw i32 %54, %56
  %58 = sext i32 %57 to i64
  %59 = getelementptr inbounds i16, ptr %51, i64 %58
  %60 = load i16, ptr %59, align 2, !tbaa !14
  %61 = zext i16 %60 to i32
  %62 = shl i32 %61, 2
  %63 = load i32, ptr %3, align 4, !tbaa !3
  %64 = and i32 %63, 31
  %65 = add nsw i32 %62, %64
  br label %100

66:                                               ; preds = %47
  %67 = load i32, ptr %3, align 4, !tbaa !3
  %68 = icmp ugt i32 %67, 1114111
  br i1 %68, label %69, label %70

69:                                               ; preds = %66
  br label %98

70:                                               ; preds = %66
  %71 = load i32, ptr %3, align 4, !tbaa !3
  %72 = icmp sge i32 %71, 1114112
  br i1 %72, label %73, label %74

73:                                               ; preds = %70
  br label %96

74:                                               ; preds = %70
  %75 = load ptr, ptr @_ZL9propsTrie, align 8, !tbaa !7
  %76 = load ptr, ptr @_ZL9propsTrie, align 8, !tbaa !7
  %77 = load i32, ptr %3, align 4, !tbaa !3
  %78 = ashr i32 %77, 11
  %79 = add nsw i32 2080, %78
  %80 = sext i32 %79 to i64
  %81 = getelementptr inbounds i16, ptr %76, i64 %80
  %82 = load i16, ptr %81, align 2, !tbaa !14
  %83 = zext i16 %82 to i32
  %84 = load i32, ptr %3, align 4, !tbaa !3
  %85 = ashr i32 %84, 5
  %86 = and i32 %85, 63
  %87 = add nsw i32 %83, %86
  %88 = sext i32 %87 to i64
  %89 = getelementptr inbounds i16, ptr %75, i64 %88
  %90 = load i16, ptr %89, align 2, !tbaa !14
  %91 = zext i16 %90 to i32
  %92 = shl i32 %91, 2
  %93 = load i32, ptr %3, align 4, !tbaa !3
  %94 = and i32 %93, 31
  %95 = add nsw i32 %92, %94
  br label %96

96:                                               ; preds = %74, %73
  %97 = phi i32 [ 23792, %73 ], [ %95, %74 ]
  br label %98

98:                                               ; preds = %96, %69
  %99 = phi i32 [ 4876, %69 ], [ %97, %96 ]
  br label %100

100:                                              ; preds = %98, %50
  %101 = phi i32 [ %65, %50 ], [ %99, %98 ]
  br label %102

102:                                              ; preds = %100, %34
  %103 = phi i32 [ %46, %34 ], [ %101, %100 ]
  %104 = sext i32 %103 to i64
  %105 = getelementptr inbounds i16, ptr %31, i64 %104
  %106 = load i16, ptr %105, align 2, !tbaa !14
  %107 = zext i16 %106 to i32
  store i32 %107, ptr %4, align 4, !tbaa !3
  %108 = load i32, ptr %4, align 4, !tbaa !3
  %109 = and i32 %108, 31
  %110 = icmp eq i32 %109, 9
  %111 = zext i1 %110 to i8
  store i8 %111, ptr %2, align 1
  store i32 1, ptr %5, align 4
  br label %112

112:                                              ; preds = %102, %29
  call void @llvm.lifetime.end.p0(i64 4, ptr %4) #6
  %113 = load i8, ptr %2, align 1
  ret i8 %113
}