; Function Attrs: mustprogress nofree norecurse nosync nounwind willreturn memory(none) uwtable
define signext range(i8 0, 2) i8 @u_isxdigit_77(i32 noundef %0) local_unnamed_addr #0 {
  %2 = add i32 %0, -65
  %or.cond = icmp ult i32 %2, 38
  %3 = add nsw i32 %0, -97
  %or.cond3 = icmp ult i32 %3, -26
  %or.cond30 = select i1 %or.cond, i1 %or.cond3, i1 false
  br i1 %or.cond30, label %45, label %4

4:                                                ; preds = %1
  %5 = add i32 %0, -65313
  %or.cond5 = icmp ult i32 %5, 38
  %6 = add nsw i32 %0, -65345
  %or.cond7 = icmp ult i32 %6, -26
  %or.cond31 = select i1 %or.cond5, i1 %or.cond7, i1 false
  br i1 %or.cond31, label %45, label %7

7:                                                ; preds = %4
  %8 = icmp ult i32 %0, 55296
  br i1 %8, label %9, label %11

9:                                                ; preds = %7
  %10 = lshr i32 %0, 5
  br label %.sink.split

11:                                               ; preds = %7
  %12 = icmp ult i32 %0, 65536
  br i1 %12, label %13, label %18

13:                                               ; preds = %11
  %14 = icmp samesign ult i32 %0, 56320
  %15 = select i1 %14, i32 320, i32 0
  %16 = lshr i32 %0, 5
  %17 = add nuw nsw i32 %15, %16
  br label %.sink.split

18:                                               ; preds = %11
  %19 = icmp ugt i32 %0, 1114111
  br i1 %19, label %38, label %20

20:                                               ; preds = %18
  %21 = lshr i32 %0, 11
  %22 = zext nneg i32 %21 to i64
  %23 = getelementptr inbounds nuw i16, ptr @_ZL15propsTrie_index, i64 %22
  %24 = getelementptr inbounds nuw i8, ptr %23, i64 4160
  %25 = load i16, ptr %24, align 2, !tbaa !3
  %26 = zext i16 %25 to i32
  %27 = lshr i32 %0, 5
  %28 = and i32 %27, 63
  %29 = add nuw nsw i32 %28, %26
  br label %.sink.split

.sink.split:                                      ; preds = %9, %20, %13
  %.sink35 = phi i32 [ %17, %13 ], [ %29, %20 ], [ %10, %9 ]
  %30 = zext nneg i32 %.sink35 to i64
  %31 = getelementptr inbounds nuw i16, ptr @_ZL15propsTrie_index, i64 %30
  %32 = load i16, ptr %31, align 2, !tbaa !3
  %33 = zext i16 %32 to i32
  %34 = shl nuw nsw i32 %33, 2
  %35 = and i32 %0, 31
  %36 = add nuw nsw i32 %34, %35
  %37 = zext nneg i32 %36 to i64
  br label %38

38:                                               ; preds = %.sink.split, %18
  %39 = phi i64 [ 4876, %18 ], [ %37, %.sink.split ]
  %40 = getelementptr inbounds nuw i16, ptr @_ZL15propsTrie_index, i64 %39
  %41 = load i16, ptr %40, align 2, !tbaa !3
  %42 = and i16 %41, 31
  %43 = icmp eq i16 %42, 9
  %44 = zext i1 %43 to i8
  br label %45

45:                                               ; preds = %1, %4, %38
  %.0 = phi i8 [ %44, %38 ], [ 1, %4 ], [ 1, %1 ]
  ret i8 %.0
}